target datalayout = "e-m:e-p270:32:32-p271:32:32-p272:64:64-i64:64-i128:128-f80:128-n8:16:32:64-S128"
target triple = "x86_64-pc-linux-gnu"

%struct.OSQPVectorf_ = type { ptr, i64 }
%struct.OSQPVectori_ = type { ptr, i64 }

; Function Attrs: nounwind uwtable
define i64 @OSQPVectorf_ew_bounds_type(ptr noundef %0, ptr noundef %1, ptr noundef %2, double noundef %3, double noundef %4) #0 {
  %6 = alloca ptr, align 8
  %7 = alloca ptr, align 8
  %8 = alloca ptr, align 8
  %9 = alloca double, align 8
  %10 = alloca double, align 8
  %11 = alloca i64, align 8
  %12 = alloca i64, align 8
  %13 = alloca i64, align 8
  %14 = alloca i64, align 8
  %15 = alloca ptr, align 8
  %16 = alloca ptr, align 8
  %17 = alloca ptr, align 8
  store ptr %0, ptr %6, align 8
  store ptr %1, ptr %7, align 8
  store ptr %2, ptr %8, align 8
  store double %3, ptr %9, align 8
  store double %4, ptr %10, align 8
  store i64 0, ptr %13, align 8
  %18 = load ptr, ptr %6, align 8
  %19 = getelementptr inbounds %struct.OSQPVectori_, ptr %18, i32 0, i32 1
  %20 = load i64, ptr %19, align 8
  store i64 %20, ptr %14, align 8
  %21 = load ptr, ptr %6, align 8
  %22 = getelementptr inbounds %struct.OSQPVectori_, ptr %21, i32 0, i32 0
  %23 = load ptr, ptr %22, align 8
  store ptr %23, ptr %15, align 8
  %24 = load ptr, ptr %7, align 8
  %25 = getelementptr inbounds %struct.OSQPVectorf_, ptr %24, i32 0, i32 0
  %26 = load ptr, ptr %25, align 8
  store ptr %26, ptr %16, align 8
  %27 = load ptr, ptr %8, align 8
  %28 = getelementptr inbounds %struct.OSQPVectorf_, ptr %27, i32 0, i32 0
  %29 = load ptr, ptr %28, align 8
  store ptr %29, ptr %17, align 8
  store i64 0, ptr %11, align 8
  br label %30

30:                                               ; preds = %92, %5
  %31 = load i64, ptr %11, align 8
  %32 = load i64, ptr %14, align 8
  %33 = icmp slt i64 %31, %32
  br i1 %33, label %34, label %95

34:                                               ; preds = %30
  %35 = load ptr, ptr %15, align 8
  %36 = load i64, ptr %11, align 8
  %37 = getelementptr inbounds i64, ptr %35, i64 %36
  %38 = load i64, ptr %37, align 8
  store i64 %38, ptr %12, align 8
  %39 = load ptr, ptr %16, align 8
  %40 = load i64, ptr %11, align 8
  %41 = getelementptr inbounds double, ptr %39, i64 %40
  %42 = load double, ptr %41, align 8
  %43 = load double, ptr %10, align 8
  %44 = fneg double %43
  %45 = fcmp olt double %42, %44
  br i1 %45, label %46, label %57

46:                                               ; preds = %34
  %47 = load ptr, ptr %17, align 8
  %48 = load i64, ptr %11, align 8
  %49 = getelementptr inbounds double, ptr %47, i64 %48
  %50 = load double, ptr %49, align 8
  %51 = load double, ptr %10, align 8
  %52 = fcmp ogt double %50, %51
  br i1 %52, label %53, label %57

53:                                               ; preds = %46
  %54 = load ptr, ptr %15, align 8
  %55 = load i64, ptr %11, align 8
  %56 = getelementptr inbounds i64, ptr %54, i64 %55
  store i64 -1, ptr %56, align 8
  br label %78

57:                                               ; preds = %46, %34
  %58 = load ptr, ptr %17, align 8
  %59 = load i64, ptr %11, align 8
  %60 = getelementptr inbounds double, ptr %58, i64 %59
  %61 = load double, ptr %60, align 8
  %62 = load ptr, ptr %16, align 8
  %63 = load i64, ptr %11, align 8
  %64 = getelementptr inbounds double, ptr %62, i64 %63
  %65 = load double, ptr %64, align 8
  %66 = fsub double %61, %65
  %67 = load double, ptr %9, align 8
  %68 = fcmp olt double %66, %67
  br i1 %68, label %69, label %73

69:                                               ; preds = %57
  %70 = load ptr, ptr %15, align 8
  %71 = load i64, ptr %11, align 8
  %72 = getelementptr inbounds i64, ptr %70, i64 %71
  store i64 1, ptr %72, align 8
  br label %77

73:                                               ; preds = %57
  %74 = load ptr, ptr %15, align 8
  %75 = load i64, ptr %11, align 8
  %76 = getelementptr inbounds i64, ptr %74, i64 %75
  store i64 0, ptr %76, align 8
  br label %77

77:                                               ; preds = %73, %69
  br label %78

78:                                               ; preds = %77, %53
  %79 = load i64, ptr %13, align 8
  %80 = icmp ne i64 %79, 0
  br i1 %80, label %88, label %81

81:                                               ; preds = %78
  %82 = load ptr, ptr %15, align 8
  %83 = load i64, ptr %11, align 8
  %84 = getelementptr inbounds i64, ptr %82, i64 %83
  %85 = load i64, ptr %84, align 8
  %86 = load i64, ptr %12, align 8
  %87 = icmp ne i64 %85, %86
  br label %88

88:                                               ; preds = %81, %78
  %89 = phi i1 [ true, %78 ], [ %87, %81 ]
  %90 = zext i1 %89 to i32
  %91 = sext i32 %90 to i64
  store i64 %91, ptr %13, align 8
  br label %92

92:                                               ; preds = %88
  %93 = load i64, ptr %11, align 8
  %94 = add nsw i64 %93, 1
  store i64 %94, ptr %11, align 8
  br label %30, !llvm.loop !45

95:                                               ; preds = %30
  %96 = load i64, ptr %13, align 8
  ret i64 %96
}