; Function Attrs: nofree norecurse nosync nounwind memory(readwrite, inaccessiblemem: none) uwtable
define i64 @OSQPVectorf_ew_bounds_type(ptr nocapture noundef readonly %0, ptr nocapture noundef readonly %1, ptr nocapture noundef readonly %2, double noundef %3, double noundef %4) local_unnamed_addr #7 {
  %6 = getelementptr inbounds i8, ptr %0, i64 8
  %7 = load i64, ptr %6, align 8
  %8 = load ptr, ptr %0, align 8
  %9 = load ptr, ptr %1, align 8
  %10 = load ptr, ptr %2, align 8
  %11 = icmp sgt i64 %7, 0
  br i1 %11, label %.lr.ph, label %._crit_edge

.lr.ph:                                           ; preds = %5
  %12 = fneg double %4
  br label %13

13:                                               ; preds = %.lr.ph, %13
  %.032 = phi i64 [ 0, %.lr.ph ], [ %26, %13 ]
  %.03031 = phi i1 [ false, %.lr.ph ], [ %25, %13 ]
  %14 = getelementptr inbounds i64, ptr %8, i64 %.032
  %15 = load i64, ptr %14, align 8
  %16 = getelementptr inbounds double, ptr %9, i64 %.032
  %17 = load double, ptr %16, align 8
  %18 = fcmp olt double %17, %12
  %19 = getelementptr inbounds double, ptr %10, i64 %.032
  %20 = load double, ptr %19, align 8
  %21 = fcmp ogt double %20, %4
  %or.cond = select i1 %18, i1 %21, i1 false
  %22 = fsub double %20, %17
  %23 = fcmp olt double %22, %3
  %. = zext i1 %23 to i64
  %.sink = select i1 %or.cond, i64 -1, i64 %.
  store i64 %.sink, ptr %14, align 8
  %24 = icmp ne i64 %.sink, %15
  %25 = select i1 %.03031, i1 true, i1 %24
  %26 = add nuw nsw i64 %.032, 1
  %exitcond.not = icmp eq i64 %26, %7
  br i1 %exitcond.not, label %._crit_edge.loopexit, label %13, !llvm.loop !45

._crit_edge.loopexit:                             ; preds = %13
  %27 = zext i1 %25 to i64
  br label %._crit_edge

._crit_edge:                                      ; preds = %._crit_edge.loopexit, %5
  %.030.lcssa = phi i64 [ 0, %5 ], [ %27, %._crit_edge.loopexit ]
  ret i64 %.030.lcssa
}